; Function Attrs: mustprogress uwtable
define noundef double @_ZNK8QuantLib30MultiplicativePriceSeasonality15correctZeroRateERKNS_4DateEdRKNS_22InflationTermStructureE(ptr noundef nonnull align 8 dereferenceable(48) %this, ptr noundef nonnull align 8 dereferenceable(8) %d, double noundef %r, ptr noundef nonnull align 8 dereferenceable(113) %iTS) unnamed_addr #6 align 2 personality ptr @__gxx_personality_v0 {
entry:
  %curveBaseDate = alloca %"class.QuantLib::Date", align 8
  %effectiveFixingDate = alloca %"class.QuantLib::Date", align 8
  %ref.tmp6 = alloca %"class.QuantLib::DayCounter", align 8
  call void @llvm.lifetime.start.p0(i64 8, ptr nonnull %curveBaseDate) #23
  %vtable = load ptr, ptr %iTS, align 8, !tbaa !3
  %vfn = getelementptr inbounds i8, ptr %vtable, i64 96
  %0 = load ptr, ptr %vfn, align 8
  %call = tail call i64 %0(ptr noundef nonnull align 8 dereferenceable(113) %iTS)
  store i64 %call, ptr %curveBaseDate, align 8
  call void @llvm.lifetime.start.p0(i64 8, ptr nonnull %effectiveFixingDate) #23
  %vtable2 = load ptr, ptr %iTS, align 8, !tbaa !3
  %vfn3 = getelementptr inbounds i8, ptr %vtable2, i64 80
  %1 = load ptr, ptr %vfn3, align 8
  %call4 = tail call noundef i32 %1(ptr noundef nonnull align 8 dereferenceable(113) %iTS)
  %call5 = tail call { i64, i64 } @_ZN8QuantLib15inflationPeriodERKNS_4DateENS_9FrequencyE(ptr noundef nonnull align 8 dereferenceable(8) %d, i32 noundef %call4)
  %2 = extractvalue { i64, i64 } %call5, 0
  store i64 %2, ptr %effectiveFixingDate, align 8, !tbaa !20
  call void @llvm.lifetime.start.p0(i64 16, ptr nonnull %ref.tmp6) #23
  %vtable7 = load ptr, ptr %iTS, align 8, !tbaa !3
  %vfn8 = getelementptr inbounds i8, ptr %vtable7, i64 16
  %3 = load ptr, ptr %vfn8, align 8
  call void %3(ptr dead_on_unwind nonnull writable sret(%"class.QuantLib::DayCounter") align 8 %ref.tmp6, ptr noundef nonnull align 8 dereferenceable(64) %iTS)
  %vtable9 = load ptr, ptr %this, align 8, !tbaa !3
  %vfn10 = getelementptr inbounds i8, ptr %vtable9, i64 88
  %4 = load ptr, ptr %vfn10, align 8
  %call11 = invoke noundef double %4(ptr noundef nonnull align 8 dereferenceable(48) %this, double noundef %r, ptr noundef nonnull align 8 dereferenceable(8) %effectiveFixingDate, ptr noundef nonnull align 8 dereferenceable(16) %ref.tmp6, ptr noundef nonnull align 8 dereferenceable(8) %curveBaseDate, i1 noundef zeroext true)
          to label %invoke.cont unwind label %lpad

invoke.cont:                                      ; preds = %entry
  %pn.i.i = getelementptr inbounds nuw i8, ptr %ref.tmp6, i64 8
  %5 = load ptr, ptr %pn.i.i, align 8, !tbaa !21
  %cmp.not.i.i.i = icmp eq ptr %5, null
  br i1 %cmp.not.i.i.i, label %_ZN8QuantLib10DayCounterD2Ev.exit, label %if.then.i.i.i

if.then.i.i.i:                                    ; preds = %invoke.cont
  %use_count_.i.i.i.i = getelementptr inbounds nuw i8, ptr %5, i64 8
  %6 = atomicrmw sub ptr %use_count_.i.i.i.i, i32 1 acq_rel, align 4
  %cmp.i.i.i.i = icmp eq i32 %6, 1
  br i1 %cmp.i.i.i.i, label %if.then.i.i.i.i, label %_ZN8QuantLib10DayCounterD2Ev.exit

if.then.i.i.i.i:                                  ; preds = %if.then.i.i.i
  %vtable.i.i.i.i = load ptr, ptr %5, align 8, !tbaa !3
  %vfn.i.i.i.i = getelementptr inbounds i8, ptr %vtable.i.i.i.i, i64 16
  %7 = load ptr, ptr %vfn.i.i.i.i, align 8
  invoke void %7(ptr noundef nonnull align 8 dereferenceable(16) %5)
          to label %.noexc.i.i.i unwind label %terminate.lpad.i.i.i

.noexc.i.i.i:                                     ; preds = %if.then.i.i.i.i
  %weak_count_.i.i.i.i.i = getelementptr inbounds nuw i8, ptr %5, i64 12
  %8 = atomicrmw sub ptr %weak_count_.i.i.i.i.i, i32 1 acq_rel, align 4
  %cmp.i.i.i.i.i = icmp eq i32 %8, 1
  br i1 %cmp.i.i.i.i.i, label %if.then.i.i.i.i.i, label %_ZN8QuantLib10DayCounterD2Ev.exit

if.then.i.i.i.i.i:                                ; preds = %.noexc.i.i.i
  %vtable.i.i.i.i.i = load ptr, ptr %5, align 8, !tbaa !3
  %vfn.i.i.i.i.i = getelementptr inbounds i8, ptr %vtable.i.i.i.i.i, i64 24
  %9 = load ptr, ptr %vfn.i.i.i.i.i, align 8
  invoke void %9(ptr noundef nonnull align 8 dereferenceable(16) %5)
          to label %_ZN8QuantLib10DayCounterD2Ev.exit unwind label %terminate.lpad.i.i.i

terminate.lpad.i.i.i:                             ; preds = %if.then.i.i.i.i.i, %if.then.i.i.i.i
  %10 = landingpad { ptr, i32 }
          catch ptr null
  %11 = extractvalue { ptr, i32 } %10, 0
  call void @__clang_call_terminate(ptr %11) #24
  unreachable

_ZN8QuantLib10DayCounterD2Ev.exit:                ; preds = %invoke.cont, %if.then.i.i.i, %.noexc.i.i.i, %if.then.i.i.i.i.i
  call void @llvm.lifetime.end.p0(i64 16, ptr nonnull %ref.tmp6) #23
  call void @llvm.lifetime.end.p0(i64 8, ptr nonnull %effectiveFixingDate) #23
  call void @llvm.lifetime.end.p0(i64 8, ptr nonnull %curveBaseDate) #23
  ret double %call11

lpad:                                             ; preds = %entry
  %12 = landingpad { ptr, i32 }
          cleanup
  call void @_ZN8QuantLib10DayCounterD2Ev(ptr noundef nonnull align 8 dereferenceable(16) %ref.tmp6) #23
  call void @llvm.lifetime.end.p0(i64 16, ptr nonnull %ref.tmp6) #23
  call void @llvm.lifetime.end.p0(i64 8, ptr nonnull %effectiveFixingDate) #23
  call void @llvm.lifetime.end.p0(i64 8, ptr nonnull %curveBaseDate) #23
  resume { ptr, i32 } %12
}